target datalayout = "e-m:e-p270:32:32-p271:32:32-p272:64:64-i64:64-i128:128-f80:128-n8:16:32:64-S128"
target triple = "x86_64-pc-linux-gnu"

@.str.3857 = private unnamed_addr constant [16 x i8] c"time Duration: \00", align 1
@.str.3858 = private unnamed_addr constant [17 x i8] c"enable-disable: \00", align 1
@.str.3859 = private unnamed_addr constant [11 x i8] c"Password: \00", align 1

; Function Attrs: null_pointer_is_valid sspstrong uwtable
define internal i32 @fCharacterString(ptr noundef %0, ptr noundef %1, ptr noundef %2, i32 noundef %3, ptr noundef %4) #0 {
  %6 = alloca ptr, align 8
  %7 = alloca ptr, align 8
  %8 = alloca ptr, align 8
  %9 = alloca i32, align 4
  %10 = alloca ptr, align 8
  store ptr %0, ptr %6, align 8
  store ptr %1, ptr %7, align 8
  store ptr %2, ptr %8, align 8
  store i32 %3, ptr %9, align 4
  store ptr %4, ptr %10, align 8
  %11 = load ptr, ptr %6, align 8
  %12 = load ptr, ptr %7, align 8
  %13 = load ptr, ptr %8, align 8
  %14 = load i32, ptr %9, align 4
  %15 = load ptr, ptr %10, align 8
  %16 = call i32 @fCharacterStringBase(ptr noundef %11, ptr noundef %12, ptr noundef %13, i32 noundef %14, ptr noundef %15, i1 noundef zeroext false, i1 noundef zeroext false)
  ret i32 %16
}

; Function Attrs: null_pointer_is_valid sspstrong uwtable
define internal i32 @fEnumeratedTag(ptr noundef %0, ptr noundef %1, ptr noundef %2, i32 noundef %3, ptr noundef %4, ptr noundef %5) #0 {
  %7 = alloca ptr, align 8
  %8 = alloca ptr, align 8
  %9 = alloca ptr, align 8
  %10 = alloca i32, align 4
  %11 = alloca ptr, align 8
  %12 = alloca ptr, align 8
  store ptr %0, ptr %7, align 8
  store ptr %1, ptr %8, align 8
  store ptr %2, ptr %9, align 8
  store i32 %3, ptr %10, align 4
  store ptr %4, ptr %11, align 8
  store ptr %5, ptr %12, align 8
  %13 = load ptr, ptr %7, align 8
  %14 = load ptr, ptr %8, align 8
  %15 = load ptr, ptr %9, align 8
  %16 = load i32, ptr %10, align 4
  %17 = load ptr, ptr %11, align 8
  %18 = load ptr, ptr %12, align 8
  %19 = call i32 @fEnumeratedTagSplit(ptr noundef %13, ptr noundef %14, ptr noundef %15, i32 noundef %16, ptr noundef %17, ptr noundef %18, i32 noundef 0)
  ret i32 %19
}

; Function Attrs: null_pointer_is_valid sspstrong uwtable
define internal i32 @fTagNo(ptr noundef %0, i32 noundef %1) #0 {
  %3 = alloca ptr, align 8
  %4 = alloca i32, align 4
  store ptr %0, ptr %3, align 8
  store i32 %1, ptr %4, align 4
  %5 = load ptr, ptr %3, align 8
  %6 = load i32, ptr %4, align 4
  %7 = call zeroext i8 @tvb_get_uint8(ptr noundef %5, i32 noundef %6)
  %8 = zext i8 %7 to i32
  %9 = ashr i32 %8, 4
  ret i32 %9
}

; Function Attrs: null_pointer_is_valid sspstrong uwtable
define internal i32 @fDeviceCommunicationControlRequest(ptr noundef %0, ptr noundef %1, ptr noundef %2, i32 noundef %3) #0 {
  %5 = alloca i32, align 4
  %6 = alloca ptr, align 8
  %7 = alloca ptr, align 8
  %8 = alloca ptr, align 8
  %9 = alloca i32, align 4
  %10 = alloca i32, align 4
  %11 = alloca i32, align 4
  store ptr %0, ptr %6, align 8
  store ptr %1, ptr %7, align 8
  store ptr %2, ptr %8, align 8
  store i32 %3, ptr %9, align 4
  call void @llvm.lifetime.start.p0(i64 4, ptr %10) #7
  store i32 0, ptr %10, align 4
  br label %12

12:                                               ; preds = %47, %4
  %13 = load ptr, ptr %6, align 8
  %14 = load i32, ptr %9, align 4
  %15 = call i32 @tvb_reported_length_remaining(ptr noundef %13, i32 noundef %14)
  %16 = icmp sgt i32 %15, 0
  br i1 %16, label %17, label %48

17:                                               ; preds = %12
  %18 = load i32, ptr %9, align 4
  store i32 %18, ptr %10, align 4
  %19 = load ptr, ptr %6, align 8
  %20 = load i32, ptr %9, align 4
  %21 = call i32 @fTagNo(ptr noundef %19, i32 noundef %20)
  switch i32 %21, label %40 [
    i32 0, label %22
    i32 1, label %28
    i32 2, label %34
  ]

22:                                               ; preds = %17
  %23 = load ptr, ptr %6, align 8
  %24 = load ptr, ptr %7, align 8
  %25 = load ptr, ptr %8, align 8
  %26 = load i32, ptr %9, align 4
  %27 = call i32 @fUnsignedTag(ptr noundef %23, ptr noundef %24, ptr noundef %25, i32 noundef %26, ptr noundef @.str.3857)
  store i32 %27, ptr %9, align 4
  br label %42

28:                                               ; preds = %17
  %29 = load ptr, ptr %6, align 8
  %30 = load ptr, ptr %7, align 8
  %31 = load ptr, ptr %8, align 8
  %32 = load i32, ptr %9, align 4
  %33 = call i32 @fEnumeratedTag(ptr noundef %29, ptr noundef %30, ptr noundef %31, i32 noundef %32, ptr noundef @.str.3858, ptr noundef @BACnetEnableDisable)
  store i32 %33, ptr %9, align 4
  br label %42

34:                                               ; preds = %17
  %35 = load ptr, ptr %6, align 8
  %36 = load ptr, ptr %7, align 8
  %37 = load ptr, ptr %8, align 8
  %38 = load i32, ptr %9, align 4
  %39 = call i32 @fCharacterString(ptr noundef %35, ptr noundef %36, ptr noundef %37, i32 noundef %38, ptr noundef @.str.3859)
  store i32 %39, ptr %9, align 4
  br label %42

40:                                               ; preds = %17
  %41 = load i32, ptr %9, align 4
  store i32 %41, ptr %5, align 4
  store i32 1, ptr %11, align 4
  br label %50

42:                                               ; preds = %34, %28, %22
  %43 = load i32, ptr %9, align 4
  %44 = load i32, ptr %10, align 4
  %45 = icmp ule i32 %43, %44
  br i1 %45, label %46, label %47

46:                                               ; preds = %42
  br label %48

47:                                               ; preds = %42
  br label %12, !llvm.loop !168

48:                                               ; preds = %46, %12
  %49 = load i32, ptr %9, align 4
  store i32 %49, ptr %5, align 4
  store i32 1, ptr %11, align 4
  br label %50

50:                                               ; preds = %48, %40
  call void @llvm.lifetime.end.p0(i64 4, ptr %10) #7
  %51 = load i32, ptr %5, align 4
  ret i32 %51
}