; Function Attrs: null_pointer_is_valid sspstrong uwtable
define internal fastcc i32 @fDeviceCommunicationControlRequest(ptr noundef nonnull %0, ptr noundef %1, ptr noundef %2, i32 noundef range(i32 0, 7) %3) unnamed_addr #0 {
  br label %5

5:                                                ; preds = %17, %4
  %.0 = phi i32 [ %3, %4 ], [ %.2, %17 ]
  %6 = tail call i32 @tvb_reported_length_remaining(ptr noundef nonnull %0, i32 noundef %.0)
  %7 = icmp sgt i32 %6, 0
  br i1 %7, label %8, label %18

8:                                                ; preds = %5
  %9 = tail call zeroext i8 @tvb_get_uint8(ptr noundef nonnull %0, i32 noundef %.0)
  %10 = lshr i8 %9, 4
  switch i8 %10, label %18 [
    i8 0, label %11
    i8 1, label %13
    i8 2, label %15
  ]

11:                                               ; preds = %8
  %12 = tail call fastcc i32 @fUnsignedTag(ptr noundef %0, ptr noundef %1, ptr noundef %2, i32 noundef %.0, ptr noundef nonnull @.str.3857)
  br label %17

13:                                               ; preds = %8
  %14 = tail call fastcc i32 @fEnumeratedTagSplit(ptr noundef nonnull %0, ptr noundef %1, ptr noundef %2, i32 noundef %.0, ptr noundef nonnull @.str.3858, ptr noundef nonnull @BACnetEnableDisable, i32 noundef 0)
  br label %17

15:                                               ; preds = %8
  %16 = tail call fastcc i32 @fCharacterStringBase(ptr noundef nonnull %0, ptr noundef %1, ptr noundef %2, i32 noundef %.0, ptr noundef nonnull @.str.3859, i1 noundef zeroext false, i1 noundef zeroext false)
  br label %17

17:                                               ; preds = %15, %13, %11
  %.2 = phi i32 [ %16, %15 ], [ %14, %13 ], [ %12, %11 ]
  %.not = icmp ugt i32 %.2, %.0
  br i1 %.not, label %5, label %18, !llvm.loop !178

18:                                               ; preds = %5, %17, %8
  %.021 = phi i32 [ %.0, %8 ], [ %.2, %17 ], [ %.0, %5 ]
  ret i32 %.021
}